; Function Attrs: mustprogress uwtable
define hidden noundef zeroext i1 @_ZN11mpf_manager6is_intERK3mpf(ptr noundef nonnull align 8 dereferenceable(840) %this, ptr noundef nonnull align 8 dereferenceable(32) %x) local_unnamed_addr #5 align 2 personality ptr @__gxx_personality_v0 {
entry:
  %t = alloca %class._scoped_numeral.0, align 8
  %call = tail call noundef zeroext i1 @_ZN11mpf_manager9is_normalERK3mpf(ptr noundef nonnull align 8 dereferenceable(840) %this, ptr noundef nonnull align 8 dereferenceable(32) %x)
  br i1 %call, label %if.end, label %return

if.end:                                           ; preds = %entry
  %exponent.i = getelementptr inbounds i8, ptr %x, i64 24
  %0 = load i64, ptr %exponent.i, align 8
  %bf.load = load i32, ptr %x, align 8
  %bf.lshr = lshr i32 %bf.load, 15
  %bf.clear = and i32 %bf.lshr, 65535
  %sub = add nsw i32 %bf.clear, -1
  %conv = sext i32 %sub to i64
  %cmp.not = icmp slt i64 %0, %conv
  br i1 %cmp.not, label %if.else, label %return

if.else:                                          ; preds = %if.end
  %cmp5 = icmp slt i64 %0, 0
  br i1 %cmp5, label %return, label %if.else7

if.else7:                                         ; preds = %if.else
  %m_mpz_manager = getelementptr inbounds i8, ptr %this, i64 728
  %1 = load ptr, ptr %m_mpz_manager, align 8
  store ptr %1, ptr %t, align 8
  %m_num.i = getelementptr inbounds i8, ptr %t, i64 8
  store i32 0, ptr %m_num.i, align 8
  %m_kind.i.i = getelementptr inbounds i8, ptr %t, i64 12
  store i8 0, ptr %m_kind.i.i, align 4
  %m_ptr.i.i = getelementptr inbounds i8, ptr %t, i64 16
  store ptr null, ptr %m_ptr.i.i, align 8
  %significand.i = getelementptr inbounds i8, ptr %x, i64 8
  %m_kind.i.i9 = getelementptr inbounds i8, ptr %x, i64 12
  %bf.load.i.i10 = load i8, ptr %m_kind.i.i9, align 4
  %bf.clear.i.i = and i8 %bf.load.i.i10, 1
  %cmp.i.i = icmp eq i8 %bf.clear.i.i, 0
  br i1 %cmp.i.i, label %if.then.i, label %if.else.i

if.then.i:                                        ; preds = %if.else7
  %2 = load i32, ptr %significand.i, align 8
  store i32 %2, ptr %m_num.i, align 8
  store i8 0, ptr %m_kind.i.i, align 4
  br label %invoke.cont12

if.else.i:                                        ; preds = %if.else7
  invoke void @_ZN11mpz_managerILb0EE7big_setER3mpzRKS1_(ptr noundef nonnull align 8 dereferenceable(600) %1, ptr noundef nonnull align 8 dereferenceable(16) %m_num.i, ptr noundef nonnull align 8 dereferenceable(16) %significand.i)
          to label %if.else.i.invoke.cont12_crit_edge unwind label %lpad.loopexit.split-lp

if.else.i.invoke.cont12_crit_edge:                ; preds = %if.else.i
  %bf.load13.pre = load i32, ptr %x, align 8
  %.pre = load i64, ptr %exponent.i, align 8
  %.pre20 = lshr i32 %bf.load13.pre, 15
  %.pre21 = and i32 %.pre20, 65535
  br label %invoke.cont12

invoke.cont12:                                    ; preds = %if.else.i.invoke.cont12_crit_edge, %if.then.i
  %bf.clear15.pre-phi = phi i32 [ %.pre21, %if.else.i.invoke.cont12_crit_edge ], [ %bf.clear, %if.then.i ]
  %3 = phi i64 [ %.pre, %if.else.i.invoke.cont12_crit_edge ], [ %0, %if.then.i ]
  %conv18 = trunc i64 %3 to i32
  %4 = xor i32 %conv18, -1
  %sub20 = add i32 %bf.clear15.pre-phi, %4
  br label %invoke.cont24

invoke.cont24:                                    ; preds = %invoke.cont12, %do.cond
  %shift.0 = phi i32 [ %sub20, %invoke.cont12 ], [ %dec, %do.cond ]
  %bf.load.i.i.i = load i8, ptr %m_kind.i.i, align 4
  %bf.clear.i.i.i = and i8 %bf.load.i.i.i, 1
  %cmp.i.i.i = icmp eq i8 %bf.clear.i.i.i, 0
  %5 = load ptr, ptr %m_ptr.i.i, align 8
  %m_digits.i.i.i = getelementptr inbounds i8, ptr %5, i64 8
  %retval.0.in.in.in.i.i = select i1 %cmp.i.i.i, ptr %m_num.i, ptr %m_digits.i.i.i
  %retval.0.in.in.i.i = load i32, ptr %retval.0.in.in.in.i.i, align 4
  %retval.0.in.i.i = and i32 %retval.0.in.in.i.i, 1
  %retval.0.i.i.not = icmp eq i32 %retval.0.in.i.i, 0
  br i1 %retval.0.i.i.not, label %if.end27, label %cleanup

lpad.loopexit:                                    ; preds = %if.end27
  %lpad.loopexit15 = landingpad { ptr, i32 }
          cleanup
  br label %lpad

lpad.loopexit.split-lp:                           ; preds = %if.else.i
  %lpad.loopexit.split-lp16 = landingpad { ptr, i32 }
          cleanup
  br label %lpad

lpad:                                             ; preds = %lpad.loopexit.split-lp, %lpad.loopexit
  %lpad.phi = phi { ptr, i32 } [ %lpad.loopexit15, %lpad.loopexit ], [ %lpad.loopexit.split-lp16, %lpad.loopexit.split-lp ]
  call void @_ZN15_scoped_numeralI11mpz_managerILb0EEED2Ev(ptr noundef nonnull align 8 dereferenceable(24) %t) #17
  resume { ptr, i32 } %lpad.phi

if.end27:                                         ; preds = %invoke.cont24
  %6 = load ptr, ptr %m_mpz_manager, align 8
  invoke void @_ZN11mpz_managerILb0EE13machine_div2kER3mpzj(ptr noundef nonnull align 8 dereferenceable(600) %6, ptr noundef nonnull align 8 dereferenceable(16) %m_num.i, i32 noundef 1)
          to label %do.cond unwind label %lpad.loopexit

do.cond:                                          ; preds = %if.end27
  %dec = add i32 %shift.0, -1
  %cmp32.not = icmp eq i32 %dec, 0
  br i1 %cmp32.not, label %cleanup, label %invoke.cont24, !llvm.loop !44

cleanup:                                          ; preds = %do.cond, %invoke.cont24
  %7 = load ptr, ptr %t, align 8
  invoke void @_ZN11mpz_managerILb0EE3delEPS0_R3mpz(ptr noundef nonnull %7, ptr noundef nonnull align 8 dereferenceable(16) %m_num.i)
          to label %return unwind label %terminate.lpad.i

terminate.lpad.i:                                 ; preds = %cleanup
  %8 = landingpad { ptr, i32 }
          catch ptr null
  %9 = extractvalue { ptr, i32 } %8, 0
  call void @__clang_call_terminate(ptr %9) #18
  unreachable

return:                                           ; preds = %cleanup, %if.else, %if.end, %entry
  %retval.1 = phi i1 [ false, %entry ], [ true, %if.end ], [ false, %if.else ], [ %retval.0.i.i.not, %cleanup ]
  ret i1 %retval.1
}